Certificate:
    Data:
        Version: 3 (0x2)
        Serial Number:
            fb:23:48:b1:a6:e9:2a:9c:c7:97:59:cd:79:98:ad:a0
    Signature Algorithm: sha256WithRSAEncryption
        Issuer: CN=Easy-RSA CA
        Validity
            Not Before: Feb 10 09:34:32 2021 GMT
            Not After : Feb  8 09:34:32 2031 GMT
        Subject: CN=superuser
        Subject Public Key Info:
            Public Key Algorithm: rsaEncryption
                Public-Key: (2048 bit)
                Modulus:
                    00:d8:1c:01:77:a4:30:4c:50:18:15:8e:75:5c:1b:
                    5c:9d:3b:27:f8:f1:e2:29:b8:5e:f9:03:56:26:15:
                    7d:2c:f0:44:87:d6:49:9f:fc:91:56:ee:e1:fe:41:
                    2c:1c:3c:a4:c4:91:d9:60:f5:34:5e:b8:0e:a9:51:
                    84:b1:47:bd:fe:0e:06:43:ea:67:2a:74:5d:88:32:
                    a4:42:d0:e4:11:b6:7f:d9:be:b6:e6:e1:a6:61:8f:
                    44:67:50:e8:63:57:f7:0e:d1:d2:38:55:d9:3b:98:
                    f1:a7:e0:bc:d3:c2:98:57:a8:a2:fd:3b:ff:6d:e6:
                    0e:c4:83:b8:e4:91:92:e1:d9:70:3d:d8:08:65:33:
                    09:b4:2f:bd:66:31:da:1d:6f:34:af:9b:46:2d:7c:
                    21:c4:2c:50:f8:23:a4:2c:cf:0e:45:76:d0:d3:81:
                    fb:97:24:ae:f0:b3:2e:b8:b5:ea:fe:dc:e6:b8:97:
                    6b:86:8b:be:f3:0b:12:99:e0:37:2f:fb:da:2c:45:
                    ab:37:cb:a8:4c:38:97:21:b4:7e:a1:7c:85:8f:74:
                    94:62:e6:7b:47:80:3d:e4:06:ab:e5:01:b6:e4:3c:
                    73:5e:50:cf:48:b3:17:29:65:6c:a6:ce:c3:81:b7:
                    cb:e4:3a:ac:c3:23:2c:2a:bd:fa:2c:71:7e:0a:92:
                    f1:4b
                Exponent: 65537 (0x10001)
        X509v3 extensions:
            X509v3 Basic Constraints: 
                CA:FALSE
            X509v3 Subject Key Identifier: 
                91:23:50:E6:E5:AA:AE:82:34:E3:B4:21:5E:80:96:E0:5B:3E:5E:96
            X509v3 Authority Key Identifier: 
                keyid:63:B6:14:33:A7:88:68:DA:96:4D:33:D4:69:FE:AF:E6:65:25:40:2B
                DirName:/CN=Easy-RSA CA
                serial:E3:D6:73:11:13:FB:06:AA

            X509v3 Extended Key Usage: 
                TLS Web Client Authentication
            X509v3 Key Usage: 
                Digital Signature
    Signature Algorithm: sha256WithRSAEncryption
         55:89:71:93:0f:3e:6e:c5:79:2d:fa:14:81:ea:6d:02:7f:5b:
         58:be:04:9d:28:91:7d:7a:a5:b9:dc:8e:36:64:f9:75:44:6a:
         08:19:38:d9:1d:34:d1:72:31:91:99:cc:9b:b1:4a:05:f9:78:
         dd:8e:ad:c3:72:3c:a1:ba:7a:36:cf:50:6d:04:90:0a:a9:d2:
         68:b7:4a:16:d5:5d:78:8a:4c:81:fb:fb:59:b4:db:de:80:54:
         1c:b4:94:5e:ce:24:ae:a6:41:85:85:c5:7b:1a:0d:70:68:8d:
         f8:50:04:54:56:39:28:49:3e:28:73:19:be:06:ae:24:73:e0:
         a2:7c:b6:76:f5:80:fe:ea:60:af:17:9b:3c:91:3c:17:90:ea:
         0a:65:a2:00:15:6a:a6:32:90:7e:2f:0a:04:bb:1d:fb:27:cd:
         56:97:4c:17:1c:ee:7b:4f:10:98:5c:25:01:1f:4b:fa:b4:49:
         85:3e:e3:7a:e9:15:1e:d9:09:bb:73:9b:35:49:ab:71:1f:97:
         b0:e0:8d:87:f3:95:72:48:2e:8c:22:54:0a:7a:04:62:bc:36:
         b1:f2:0c:a6:a1:dc:44:ae:79:e7:31:f1:44:2c:07:61:e1:1b:
         0d:ee:61:bd:1c:4c:c8:79:24:86:69:37:b6:b0:db:4e:15:56:
         68:d4:ac:15
-----BEGIN CERTIFICATE-----
MIIDTTCCAjWgAwIBAgIRAPsjSLGm6Sqcx5dZzXmYraAwDQYJKoZIhvcNAQELBQAw
FjEUMBIGA1UEAwwLRWFzeS1SU0EgQ0EwHhcNMjEwMjEwMDkzNDMyWhcNMzEwMjA4
MDkzNDMyWjAUMRIwEAYDVQQDDAlzdXBlcnVzZXIwggEiMA0GCSqGSIb3DQEBAQUA
A4IBDwAwggEKAoIBAQDYHAF3pDBMUBgVjnVcG1ydOyf48eIpuF75A1YmFX0s8ESH
1kmf/JFW7uH+QSwcPKTEkdlg9TReuA6pUYSxR73+DgZD6mcqdF2IMqRC0OQRtn/Z
vrbm4aZhj0RnUOhjV/cO0dI4Vdk7mPGn4LzTwphXqKL9O/9t5g7Eg7jkkZLh2XA9
2AhlMwm0L71mMdodbzSvm0YtfCHELFD4I6Qszw5FdtDTgfuXJK7wsy64ter+3Oa4
l2uGi77zCxKZ4Dcv+9osRas3y6hMOJchtH6hfIWPdJRi5ntHgD3kBqvlAbbkPHNe
UM9IsxcpZWymzsOBt8vkOqzDIywqvfoscX4KkvFLAgMBAAGjgZcwgZQwCQYDVR0T
BAIwADAdBgNVHQ4EFgQUkSNQ5uWqroI047QhXoCW4Fs+XpYwRgYDVR0jBD8wPYAU
Y7YUM6eIaNqWTTPUaf6v5mUlQCuhGqQYMBYxFDASBgNVBAMMC0Vhc3ktUlNBIENB
ggkA49ZzERP7BqowEwYDVR0lBAwwCgYIKwYBBQUHAwIwCwYDVR0PBAQDAgeAMA0G
CSqGSIb3DQEBCwUAA4IBAQBViXGTDz5uxXkt+hSB6m0Cf1tYvgSdKJF9eqW53I42
ZPl1RGoIGTjZHTTRcjGRmcybsUoF+Xjdjq3Dcjyhuno2z1BtBJAKqdJot0oW1V14
ikyB+/tZtNvegFQctJReziSupkGFhcV7Gg1waI34UARUVjkoST4ocxm+Bq4kc+Ci
fLZ29YD+6mCvF5s8kTwXkOoKZaIAFWqmMpB+LwoEux37J81Wl0wXHO57TxCYXCUB
H0v6tEmFPuN66RUe2Qm7c5s1SatxH5ew4I2H85VySC6MIlQKegRivDax8gymodxE
rnnnMfFELAdh4RsN7mG9HEzIeSSGaTe2sNtOFVZo1KwV
-----END CERTIFICATE-----
