Certificate:
    Data:
        Version: 3 (0x2)
        Serial Number:
            88:77:ac:94:51:91:cf:60:2a:43:34:43:0f:fe:0f:e2
    Signature Algorithm: sha256WithRSAEncryption
        Issuer: CN=Easy-RSA CA
        Validity
            Not Before: Feb 10 09:34:52 2021 GMT
            Not After : Feb  8 09:34:52 2031 GMT
        Subject: CN=user
        Subject Public Key Info:
            Public Key Algorithm: rsaEncryption
                Public-Key: (2048 bit)
                Modulus:
                    00:b7:a9:60:b5:ff:f1:f1:d1:6b:64:00:dc:5c:7a:
                    e8:e3:b2:44:0e:bf:b9:44:89:72:03:22:0f:18:6f:
                    19:29:84:0e:c8:d0:b3:93:e1:c7:81:f7:33:18:68:
                    2e:df:1a:08:23:b7:d8:f3:29:e7:b5:18:b2:d7:a4:
                    ed:67:ea:9f:67:13:a0:a4:21:4e:56:cf:4e:cf:7a:
                    96:b3:b1:02:a8:75:09:f3:1f:87:a0:e1:6e:78:f4:
                    96:71:9c:9c:97:a6:3e:90:61:a0:41:60:b6:62:d4:
                    f8:08:b3:f1:d9:77:aa:35:83:d7:cf:0a:37:4b:cb:
                    ba:64:a9:5b:b6:06:9a:c0:c0:15:f7:d1:59:33:9a:
                    45:b2:9e:39:c0:a7:40:69:98:b1:b2:e1:9b:88:56:
                    c0:7d:10:bd:22:bf:ea:0b:25:87:d6:49:a4:f2:47:
                    da:e2:3d:01:2f:96:9e:32:00:49:54:f8:f5:56:dd:
                    85:60:bd:85:cf:69:fd:61:eb:6d:25:0b:66:7a:89:
                    01:fa:03:2c:33:dd:1a:f7:e2:11:fb:56:57:77:01:
                    53:b4:b9:bc:82:02:5c:82:9b:c8:e2:35:59:fc:07:
                    1f:18:17:63:12:3a:ab:27:63:2f:f8:77:45:d2:b9:
                    39:c7:fc:67:90:21:5d:c7:6d:74:c8:97:b6:08:c3:
                    13:25
                Exponent: 65537 (0x10001)
        X509v3 extensions:
            X509v3 Basic Constraints: 
                CA:FALSE
            X509v3 Subject Key Identifier: 
                1F:CA:D5:D0:6B:FE:A9:7D:38:5B:BD:A9:CE:9A:05:79:69:AA:29:48
            X509v3 Authority Key Identifier: 
                keyid:63:B6:14:33:A7:88:68:DA:96:4D:33:D4:69:FE:AF:E6:65:25:40:2B
                DirName:/CN=Easy-RSA CA
                serial:E3:D6:73:11:13:FB:06:AA

            X509v3 Extended Key Usage: 
                TLS Web Client Authentication
            X509v3 Key Usage: 
                Digital Signature
    Signature Algorithm: sha256WithRSAEncryption
         a2:38:f6:bc:27:2c:0c:fa:b6:86:0d:0a:4b:21:33:a4:67:1a:
         09:68:df:71:54:85:15:8b:b5:4b:eb:83:54:b4:a4:2c:ce:a0:
         05:05:19:50:3e:90:31:64:e9:ad:b3:8d:c5:a7:51:6f:cc:58:
         c6:61:03:62:09:3b:94:b1:22:b7:16:49:c4:d0:c0:8c:5d:7e:
         a5:f7:03:49:f8:18:35:8d:3e:19:4a:d0:22:93:2f:ad:61:ba:
         be:03:b4:d7:6d:7c:fa:ff:0e:a0:18:45:3b:ea:15:1a:6d:7a:
         07:d6:ab:d8:b8:ef:2c:ac:21:5b:bb:51:ea:6b:e0:e8:29:d9:
         c8:02:dd:bf:87:18:14:47:5c:f2:de:0d:df:3c:91:8f:cb:bb:
         50:b7:3a:11:38:bd:92:11:37:90:4a:2e:76:11:b5:bc:ba:63:
         bd:51:fc:f9:f5:a3:73:a2:53:91:fa:19:0f:e0:99:c1:49:76:
         32:21:b0:32:e1:ee:f6:bf:fe:c7:25:d6:48:e3:be:68:b4:d4:
         b1:44:16:80:a8:93:b4:07:da:d5:f1:d5:1d:65:5c:ba:71:56:
         ef:b5:2e:a2:da:04:7c:e7:5c:64:da:92:a2:f7:c0:51:4d:f7:
         95:8a:98:35:89:7d:ac:5f:a0:b1:26:57:52:2f:64:3a:fd:ca:
         f0:c2:af:82
-----BEGIN CERTIFICATE-----
MIIDSDCCAjCgAwIBAgIRAIh3rJRRkc9gKkM0Qw/+D+IwDQYJKoZIhvcNAQELBQAw
FjEUMBIGA1UEAwwLRWFzeS1SU0EgQ0EwHhcNMjEwMjEwMDkzNDUyWhcNMzEwMjA4
MDkzNDUyWjAPMQ0wCwYDVQQDDAR1c2VyMIIBIjANBgkqhkiG9w0BAQEFAAOCAQ8A
MIIBCgKCAQEAt6lgtf/x8dFrZADcXHro47JEDr+5RIlyAyIPGG8ZKYQOyNCzk+HH
gfczGGgu3xoII7fY8ynntRiy16TtZ+qfZxOgpCFOVs9Oz3qWs7ECqHUJ8x+HoOFu
ePSWcZycl6Y+kGGgQWC2YtT4CLPx2XeqNYPXzwo3S8u6ZKlbtgaawMAV99FZM5pF
sp45wKdAaZixsuGbiFbAfRC9Ir/qCyWH1kmk8kfa4j0BL5aeMgBJVPj1Vt2FYL2F
z2n9YettJQtmeokB+gMsM90a9+IR+1ZXdwFTtLm8ggJcgpvI4jVZ/AcfGBdjEjqr
J2Mv+HdF0rk5x/xnkCFdx210yJe2CMMTJQIDAQABo4GXMIGUMAkGA1UdEwQCMAAw
HQYDVR0OBBYEFB/K1dBr/ql9OFu9qc6aBXlpqilIMEYGA1UdIwQ/MD2AFGO2FDOn
iGjalk0z1Gn+r+ZlJUAroRqkGDAWMRQwEgYDVQQDDAtFYXN5LVJTQSBDQYIJAOPW
cxET+waqMBMGA1UdJQQMMAoGCCsGAQUFBwMCMAsGA1UdDwQEAwIHgDANBgkqhkiG
9w0BAQsFAAOCAQEAojj2vCcsDPq2hg0KSyEzpGcaCWjfcVSFFYu1S+uDVLSkLM6g
BQUZUD6QMWTprbONxadRb8xYxmEDYgk7lLEitxZJxNDAjF1+pfcDSfgYNY0+GUrQ
IpMvrWG6vgO01218+v8OoBhFO+oVGm16B9ar2LjvLKwhW7tR6mvg6CnZyALdv4cY
FEdc8t4N3zyRj8u7ULc6ETi9khE3kEoudhG1vLpjvVH8+fWjc6JTkfoZD+CZwUl2
MiGwMuHu9r/+xyXWSOO+aLTUsUQWgKiTtAfa1fHVHWVcunFW77UuotoEfOdcZNqS
ovfAUU33lYqYNYl9rF+gsSZXUi9kOv3K8MKvgg==
-----END CERTIFICATE-----
