Certificate:
    Data:
        Version: 3 (0x2)
        Serial Number:
            be:07:ff:0e:74:a1:68:41:c2:8d:be:ab:8e:4c:d9:3e
    Signature Algorithm: sha256WithRSAEncryption
        Issuer: CN=Easy-RSA CA
        Validity
            Not Before: Feb 10 09:26:19 2021 GMT
            Not After : Feb  8 09:26:19 2031 GMT
        Subject: CN=vpnserver
        Subject Public Key Info:
            Public Key Algorithm: rsaEncryption
                Public-Key: (2048 bit)
                Modulus:
                    00:c0:35:95:04:be:2e:8e:c7:8e:57:f2:3f:53:1d:
                    b5:c3:d0:22:3b:62:49:91:89:fe:69:e5:a9:0e:79:
                    ab:1f:92:56:f8:4b:e2:43:ac:6f:e4:1f:eb:c1:cb:
                    98:61:f7:bd:a0:c5:83:e2:d3:a7:0d:8c:a9:50:dc:
                    1a:ec:4f:13:02:e7:10:c4:3c:2f:e5:99:bd:f0:43:
                    b7:a0:ff:4b:f0:b8:1c:84:6a:da:a5:71:70:9a:d0:
                    70:9d:bf:38:13:16:00:71:7b:8e:3b:96:7d:6d:03:
                    9c:11:55:89:63:83:50:d9:05:d6:b9:af:c3:ea:90:
                    54:24:86:ae:16:47:31:e4:a9:1c:2f:89:19:98:87:
                    7e:6b:ac:9c:65:a3:f9:9a:6c:e2:19:7c:32:ed:2c:
                    45:25:34:22:35:88:1b:12:85:5f:3b:16:e1:a3:ea:
                    9a:f0:23:a2:db:ae:d2:9f:2a:5a:1b:2c:ee:c9:43:
                    54:76:4b:2d:51:bf:1a:ff:dc:67:1d:eb:c2:9f:d2:
                    54:13:15:7a:eb:14:86:09:e0:3f:73:fd:f9:67:e2:
                    e7:3d:19:ce:dc:04:2f:09:b9:17:fd:8c:6a:52:ef:
                    e8:31:d3:96:63:a2:75:d2:d9:af:e1:82:ea:81:19:
                    1d:94:76:ef:99:5d:14:09:1c:84:54:09:94:64:e9:
                    ee:69
                Exponent: 65537 (0x10001)
        X509v3 extensions:
            X509v3 Basic Constraints: 
                CA:FALSE
            X509v3 Subject Key Identifier: 
                87:75:18:00:CB:3F:79:D2:DA:C8:AF:B0:52:C5:5F:03:1B:0C:C5:20
            X509v3 Authority Key Identifier: 
                keyid:63:B6:14:33:A7:88:68:DA:96:4D:33:D4:69:FE:AF:E6:65:25:40:2B
                DirName:/CN=Easy-RSA CA
                serial:E3:D6:73:11:13:FB:06:AA

            X509v3 Extended Key Usage: 
                TLS Web Server Authentication
            X509v3 Key Usage: 
                Digital Signature, Key Encipherment
            X509v3 Subject Alternative Name: 
                DNS:vpnserver
    Signature Algorithm: sha256WithRSAEncryption
         08:f0:67:ed:7c:77:2a:2f:f3:7f:04:8d:64:0d:d7:bf:6d:8a:
         1f:49:e3:b7:ce:32:9a:cb:c9:a6:20:c0:cc:26:53:57:3b:c7:
         e6:43:78:b0:3e:ae:3b:13:77:12:27:29:c5:b3:dd:1a:92:a9:
         e0:c6:7a:53:a5:7d:70:09:6d:25:2d:4e:c2:f5:9b:0e:15:84:
         84:de:fd:75:dd:cf:99:97:bd:6d:a3:c9:14:1f:45:e1:58:36:
         d5:4f:42:71:56:cc:a8:c4:13:a5:71:8f:13:19:30:27:e6:f8:
         32:a7:b6:b3:de:e6:05:e0:d1:9a:f7:e5:12:bd:dc:50:90:6c:
         e7:c6:70:a4:58:9a:60:c3:18:94:6a:e4:05:4e:7a:32:a2:ec:
         3a:13:96:be:ea:08:b0:ea:45:96:3b:52:df:3a:ed:a7:23:ca:
         7c:b0:43:d2:c7:9a:29:60:54:7a:71:4c:0d:6f:d9:df:8a:9f:
         99:59:4f:e3:c4:23:31:36:28:bb:65:c6:46:0d:d9:cd:fa:aa:
         d4:23:8c:62:11:16:7e:ed:a2:4e:54:b8:78:2d:1b:b8:c5:74:
         5b:c3:9c:71:5c:a6:d8:aa:e1:2a:b5:6e:1f:0c:8f:c3:69:de:
         39:97:0a:d4:cd:3f:a8:04:c3:57:b4:91:79:f8:47:25:3c:7a:
         4f:da:87:be
-----BEGIN CERTIFICATE-----
MIIDYzCCAkugAwIBAgIRAL4H/w50oWhBwo2+q45M2T4wDQYJKoZIhvcNAQELBQAw
FjEUMBIGA1UEAwwLRWFzeS1SU0EgQ0EwHhcNMjEwMjEwMDkyNjE5WhcNMzEwMjA4
MDkyNjE5WjAUMRIwEAYDVQQDDAl2cG5zZXJ2ZXIwggEiMA0GCSqGSIb3DQEBAQUA
A4IBDwAwggEKAoIBAQDANZUEvi6Ox45X8j9THbXD0CI7YkmRif5p5akOeasfklb4
S+JDrG/kH+vBy5hh972gxYPi06cNjKlQ3BrsTxMC5xDEPC/lmb3wQ7eg/0vwuByE
atqlcXCa0HCdvzgTFgBxe447ln1tA5wRVYljg1DZBda5r8PqkFQkhq4WRzHkqRwv
iRmYh35rrJxlo/mabOIZfDLtLEUlNCI1iBsShV87FuGj6prwI6LbrtKfKlobLO7J
Q1R2Sy1Rvxr/3Gcd68Kf0lQTFXrrFIYJ4D9z/fln4uc9Gc7cBC8JuRf9jGpS7+gx
05ZjonXS2a/hguqBGR2Udu+ZXRQJHIRUCZRk6e5pAgMBAAGjga0wgaowCQYDVR0T
BAIwADAdBgNVHQ4EFgQUh3UYAMs/edLayK+wUsVfAxsMxSAwRgYDVR0jBD8wPYAU
Y7YUM6eIaNqWTTPUaf6v5mUlQCuhGqQYMBYxFDASBgNVBAMMC0Vhc3ktUlNBIENB
ggkA49ZzERP7BqowEwYDVR0lBAwwCgYIKwYBBQUHAwEwCwYDVR0PBAQDAgWgMBQG
A1UdEQQNMAuCCXZwbnNlcnZlcjANBgkqhkiG9w0BAQsFAAOCAQEACPBn7Xx3Ki/z
fwSNZA3Xv22KH0njt84ymsvJpiDAzCZTVzvH5kN4sD6uOxN3EicpxbPdGpKp4MZ6
U6V9cAltJS1OwvWbDhWEhN79dd3PmZe9baPJFB9F4Vg21U9CcVbMqMQTpXGPExkw
J+b4Mqe2s97mBeDRmvflEr3cUJBs58ZwpFiaYMMYlGrkBU56MqLsOhOWvuoIsOpF
ljtS3zrtpyPKfLBD0seaKWBUenFMDW/Z34qfmVlP48QjMTYou2XGRg3Zzfqq1COM
YhEWfu2iTlS4eC0buMV0W8OccVym2KrhKrVuHwyPw2neOZcK1M0/qATDV7SRefhH
JTx6T9qHvg==
-----END CERTIFICATE-----
